; Function Attrs: nounwind uwtable
define i32 @FT_Get_Default_Named_Instance(ptr noundef %0, ptr noundef %1) local_unnamed_addr #0 {
  %.not.i = icmp eq ptr %0, null
  br i1 %.not.i, label %ft_face_get_mm_service.exit.thread, label %3

3:                                                ; preds = %2
  %4 = getelementptr inbounds i8, ptr %0, i64 16
  %5 = load i64, ptr %4, align 8
  %6 = and i64 %5, 256
  %.not24.i = icmp eq i64 %6, 0
  br i1 %.not24.i, label %ft_face_get_mm_service.exit.thread, label %7

7:                                                ; preds = %3
  %8 = getelementptr inbounds i8, ptr %0, i64 240
  %9 = load ptr, ptr %8, align 8
  %10 = getelementptr inbounds i8, ptr %9, i64 64
  %11 = load ptr, ptr %10, align 8
  %magicptr.i = ptrtoint ptr %11 to i64
  switch i64 %magicptr.i, label %.fold.split.i [
    i64 -2, label %ft_face_get_mm_service.exit.thread
    i64 0, label %12
  ]

12:                                               ; preds = %7
  %13 = getelementptr inbounds i8, ptr %0, i64 176
  %14 = load ptr, ptr %13, align 8
  %15 = load ptr, ptr %14, align 8
  %16 = getelementptr inbounds i8, ptr %15, i64 64
  %17 = load ptr, ptr %16, align 8
  %.not25.i = icmp eq ptr %17, null
  br i1 %.not25.i, label %20, label %18

18:                                               ; preds = %12
  %19 = tail call ptr %17(ptr noundef nonnull %14, ptr noundef nonnull @.str) #3
  %.pre.i = load ptr, ptr %8, align 8
  br label %20

20:                                               ; preds = %18, %12
  %21 = phi ptr [ %.pre.i, %18 ], [ %9, %12 ]
  %.0.i = phi ptr [ %19, %18 ], [ null, %12 ]
  %.not26.i = icmp eq ptr %.0.i, null
  %22 = select i1 %.not26.i, ptr inttoptr (i64 -2 to ptr), ptr %.0.i
  %23 = getelementptr inbounds i8, ptr %21, i64 64
  store ptr %22, ptr %23, align 8
  br label %.fold.split.i

.fold.split.i:                                    ; preds = %7, %20
  %.019.i = phi ptr [ %.0.i, %20 ], [ %11, %7 ]
  %.not27.i = icmp eq ptr %.019.i, null
  br i1 %.not27.i, label %ft_face_get_mm_service.exit.thread, label %ft_face_get_mm_service.exit

ft_face_get_mm_service.exit:                      ; preds = %.fold.split.i
  %24 = getelementptr inbounds i8, ptr %.019.i, i64 64
  %25 = load ptr, ptr %24, align 8
  %.not6 = icmp eq ptr %25, null
  br i1 %.not6, label %ft_face_get_mm_service.exit.thread, label %26

26:                                               ; preds = %ft_face_get_mm_service.exit
  %27 = tail call i32 %25(ptr noundef nonnull %0, ptr noundef %1) #3
  br label %ft_face_get_mm_service.exit.thread

ft_face_get_mm_service.exit.thread:               ; preds = %7, %.fold.split.i, %3, %2, %ft_face_get_mm_service.exit, %26
  %.0 = phi i32 [ %27, %26 ], [ 0, %ft_face_get_mm_service.exit ], [ 6, %3 ], [ 35, %2 ], [ 6, %.fold.split.i ], [ 6, %7 ]
  ret i32 %.0
}